libqapt.so.2 libqapt2 #MINVER#
 _ZN4QApt11HistoryItemC1ERK7QString@Base 1.0.80
 _ZN4QApt11HistoryItemC1ERKS0_@Base 1.9.60
 _ZN4QApt11HistoryItemC2ERK7QString@Base 1.0.80
 _ZN4QApt11HistoryItemC2ERKS0_@Base 1.9.60
 _ZN4QApt11HistoryItemD1Ev@Base 1.0.80
 _ZN4QApt11HistoryItemD2Ev@Base 1.0.80
 _ZN4QApt11SourceEntry10setCommentERK7QString@Base 2.0.65
 _ZN4QApt11SourceEntry10setEnabledEb@Base 2.0.65
 _ZN4QApt11SourceEntry13setComponentsERK11QStringList@Base 2.0.65
 _ZN4QApt11SourceEntry16setArchitecturesERK11QStringList@Base 2.0.65
 _ZN4QApt11SourceEntry6setUriERK7QString@Base 2.0.65
 _ZN4QApt11SourceEntry7setDistERK7QString@Base 2.0.65
 _ZN4QApt11SourceEntry7setFileERK7QString@Base 2.0.65
 _ZN4QApt11SourceEntry7setTypeERK7QString@Base 2.0.65
 _ZN4QApt11SourceEntryC1ERK7QStringS3_@Base 2.0.65
 _ZN4QApt11SourceEntryC1ERK7QStringS3_S3_RK11QStringListS3_S6_S3_@Base 2.0.65
 _ZN4QApt11SourceEntryC1ERKS0_@Base 2.0.65
 _ZN4QApt11SourceEntryC1Ev@Base 2.2.0
 _ZN4QApt11SourceEntryC2ERK7QStringS3_@Base 2.0.65
 _ZN4QApt11SourceEntryC2ERK7QStringS3_S3_RK11QStringListS3_S6_S3_@Base 2.0.65
 _ZN4QApt11SourceEntryC2ERKS0_@Base 2.0.65
 _ZN4QApt11SourceEntryC2Ev@Base 2.2.0
 _ZN4QApt11SourceEntryD1Ev@Base 2.0.65
 _ZN4QApt11SourceEntryD2Ev@Base 2.0.65
 _ZN4QApt11SourceEntryaSERKS0_@Base 2.0.65
 _ZN4QApt11SourcesList11qt_metacallEN11QMetaObject4CallEiPPv@Base 2.0.65
 _ZN4QApt11SourcesList11qt_metacastEPKc@Base 2.0.65
 _ZN4QApt11SourcesList11removeEntryERKNS_11SourceEntryE@Base 2.0.65
 _ZN4QApt11SourcesList11sourceFilesEv@Base 2.2.0
 _ZN4QApt11SourcesList13containsEntryERKNS_11SourceEntryERK7QString@Base 2.2.0
 _ZN4QApt11SourcesList16staticMetaObjectE@Base 2.0.65
 _ZN4QApt11SourcesList17dataForSourceFileERK7QString@Base 2.2.0
 _ZN4QApt11SourcesList4saveEv@Base 2.0.65
 _ZN4QApt11SourcesList6reloadEv@Base 2.0.65
 _ZN4QApt11SourcesList8addEntryERKNS_11SourceEntryE@Base 2.0.65
 _ZN4QApt11SourcesListC1EP7QObject@Base 2.0.65
 _ZN4QApt11SourcesListC1EP7QObjectRK11QStringList@Base 2.2.0
 _ZN4QApt11SourcesListC2EP7QObject@Base 2.0.65
 _ZN4QApt11SourcesListC2EP7QObjectRK11QStringList@Base 2.2.0
 _ZN4QApt11SourcesListD0Ev@Base 2.0.65
 _ZN4QApt11SourcesListD1Ev@Base 2.0.65
 _ZN4QApt11SourcesListD2Ev@Base 2.0.65
 _ZN4QApt11Transaction10updateRoleENS_15TransactionRoleE@Base 1.9.60
 _ZN4QApt11Transaction11qt_metacallEN11QMetaObject4CallEiPPv@Base 1.9.60
 _ZN4QApt11Transaction11qt_metacastEPKc@Base 1.9.60
 _ZN4QApt11Transaction11updateErrorENS_9ErrorCodeE@Base 1.9.60
 _ZN4QApt11Transaction11updateProxyERK7QString@Base 1.9.60
 _ZN4QApt11Transaction12emitFinishedEi@Base 1.9.60
 _ZN4QApt11Transaction12updateLocaleERK7QString@Base 1.9.60
 _ZN4QApt11Transaction12updatePausedEb@Base 1.9.60
 _ZN4QApt11Transaction12updateStatusENS_17TransactionStatusE@Base 1.9.60
 _ZN4QApt11Transaction12updateUserIdEi@Base 1.9.60
 _ZN4QApt11Transaction13errorOccurredENS_9ErrorCodeE@Base 1.9.60
 _ZN4QApt11Transaction13provideMediumERK7QString@Base 1.9.60
 _ZN4QApt11Transaction13statusChangedENS_17TransactionStatusE@Base 1.9.60
 _ZN4QApt11Transaction14mediumRequiredE7QStringS1_@Base 1.9.60
 _ZN4QApt11Transaction14onCallFinishedEP23QDBusPendingCallWatcher@Base 1.9.60
 _ZN4QApt11Transaction14setDebconfPipeERK7QString@Base 1.9.60
 _ZN4QApt11Transaction14updateFilePathERK7QString@Base 1.9.60
 _ZN4QApt11Transaction14updatePackagesERK4QMapI7QString8QVariantE@Base 1.9.60
 _ZN4QApt11Transaction14updateProgressEi@Base 1.9.60
 _ZN4QApt11Transaction14updatePropertyEiRK12QDBusVariant@Base 1.9.60
 _ZN4QApt11Transaction15progressChangedEi@Base 1.9.60
 _ZN4QApt11Transaction15promptUntrustedE11QStringList@Base 1.9.60
 _ZN4QApt11Transaction15setFrontendCapsENS_12FrontendCapsE@Base 2.0.65
 _ZN4QApt11Transaction15updateCancelledEb@Base 1.9.60
 _ZN4QApt11Transaction16staticMetaObjectE@Base 1.9.60
 _ZN4QApt11Transaction16updateExitStatusENS_10ExitStatusE@Base 1.9.60
 _ZN4QApt11Transaction17updateCancellableEb@Base 1.9.60
 _ZN4QApt11Transaction17updateDebconfPipeERK7QString@Base 1.9.60
 _ZN4QApt11Transaction17updateDownloadETAEy@Base 1.9.60
 _ZN4QApt11Transaction18cancellableChangedEb@Base 1.9.60
 _ZN4QApt11Transaction18configFileConflictE7QStringS1_@Base 1.9.60
 _ZN4QApt11Transaction18downloadETAChangedEy@Base 1.9.60
 _ZN4QApt11Transaction18updateErrorDetailsERK7QString@Base 1.9.60
 _ZN4QApt11Transaction18updateFrontendCapsENS_12FrontendCapsE@Base 2.0.65
 _ZN4QApt11Transaction19serviceOwnerChangedE7QStringS1_S1_@Base 1.9.60
 _ZN4QApt11Transaction19updateDownloadSpeedEy@Base 1.9.60
 _ZN4QApt11Transaction19updateStatusDetailsERK7QString@Base 1.9.60
 _ZN4QApt11Transaction19updateTransactionIdERK7QString@Base 1.9.60
 _ZN4QApt11Transaction20downloadSpeedChangedEy@Base 1.9.60
 _ZN4QApt11Transaction20replyUntrustedPromptEb@Base 1.9.60
 _ZN4QApt11Transaction20statusDetailsChangedERK7QString@Base 1.9.60
 _ZN4QApt11Transaction22updateDownloadProgressERKNS_16DownloadProgressE@Base 1.9.60
 _ZN4QApt11Transaction23downloadProgressChangedENS_16DownloadProgressE@Base 1.9.60
 _ZN4QApt11Transaction23updateUntrustedPackagesERK11QStringList@Base 1.9.60
 _ZN4QApt11Transaction25resolveConfigFileConflictERK7QStringb@Base 1.9.60
 _ZN4QApt11Transaction3runEv@Base 1.9.60
 _ZN4QApt11Transaction4syncEv@Base 1.9.60
 _ZN4QApt11Transaction6cancelEv@Base 1.9.60
 _ZN4QApt11Transaction6pausedEv@Base 1.9.60
 _ZN4QApt11Transaction7resumedEv@Base 1.9.60
 _ZN4QApt11Transaction8finishedENS_10ExitStatusE@Base 1.9.60
 _ZN4QApt11Transaction8setProxyERK7QString@Base 1.9.60
 _ZN4QApt11Transaction9setLocaleERK7QString@Base 1.9.60
 _ZN4QApt11TransactionC1ERK7QString@Base 1.9.60
 _ZN4QApt11TransactionC2ERK7QString@Base 1.9.60
 _ZN4QApt11TransactionD0Ev@Base 1.9.60
 _ZN4QApt11TransactionD1Ev@Base 1.9.60
 _ZN4QApt11TransactionD2Ev@Base 1.9.60
 _ZN4QApt14ChangelogEntryC1ERK7QStringS3_@Base 1.3.0
 _ZN4QApt14ChangelogEntryC1ERKS0_@Base 1.3.0
 _ZN4QApt14ChangelogEntryC2ERK7QStringS3_@Base 1.3.0
 _ZN4QApt14ChangelogEntryC2ERKS0_@Base 1.3.0
 _ZN4QApt14ChangelogEntryD1Ev@Base 1.3.0
 _ZN4QApt14ChangelogEntryD2Ev@Base 1.3.0
 _ZN4QApt14ChangelogEntryaSERKS0_@Base 1.3.0
 _ZN4QApt14DependencyInfo12parseDependsERK7QStringNS_14DependencyTypeE@Base 1.1.65
 _ZN4QApt14DependencyInfo8typeNameENS_14DependencyTypeE@Base 1.9.80
 _ZN4QApt14DependencyInfoC1ERK7QStringS3_NS_12RelationTypeENS_14DependencyTypeE@Base 1.1.65
 _ZN4QApt14DependencyInfoC1ERKS0_@Base 1.9.60
 _ZN4QApt14DependencyInfoC1Ev@Base 1.1.65
 _ZN4QApt14DependencyInfoC2ERK7QStringS3_NS_12RelationTypeENS_14DependencyTypeE@Base 1.1.65
 _ZN4QApt14DependencyInfoC2ERKS0_@Base 1.9.60
 _ZN4QApt14DependencyInfoC2Ev@Base 1.1.65
 _ZN4QApt14DependencyInfoD1Ev@Base 1.1.65
 _ZN4QApt14DependencyInfoD2Ev@Base 1.1.65
 _ZN4QApt14DependencyInfoaSERKS0_@Base 1.9.60
 _ZN4QApt16DownloadProgress11setFileSizeEy@Base 1.9.60
 _ZN4QApt16DownloadProgress14setFetchedSizeEy@Base 1.9.60
 _ZN4QApt16DownloadProgress16setStatusMessageERK7QString@Base 1.9.60
 _ZN4QApt16DownloadProgress17registerMetaTypesEv@Base 1.9.60
 _ZN4QApt16DownloadProgress19setShortDescriptionERK7QString@Base 1.9.60
 _ZN4QApt16DownloadProgress6setUriERK7QString@Base 1.9.60
 _ZN4QApt16DownloadProgress9setStatusENS_14DownloadStatusE@Base 1.9.60
 _ZN4QApt16DownloadProgressC1ERK7QStringNS_14DownloadStatusES3_yyS3_@Base 1.9.60
 _ZN4QApt16DownloadProgressC1ERKS0_@Base 1.9.60
 _ZN4QApt16DownloadProgressC1Ev@Base 1.9.60
 _ZN4QApt16DownloadProgressC2ERK7QStringNS_14DownloadStatusES3_yyS3_@Base 1.9.60
 _ZN4QApt16DownloadProgressC2ERKS0_@Base 1.9.60
 _ZN4QApt16DownloadProgressC2Ev@Base 1.9.60
 _ZN4QApt16DownloadProgressD1Ev@Base 1.9.60
 _ZN4QApt16DownloadProgressD2Ev@Base 1.9.60
 _ZN4QApt16DownloadProgressaSERKS0_@Base 1.9.60
 _ZN4QApt16MarkingErrorInfoC1ENS_12BrokenReasonERKNS_14DependencyInfoE@Base 1.9.65
 _ZN4QApt16MarkingErrorInfoC1ERKS0_@Base 1.9.65
 _ZN4QApt16MarkingErrorInfoC1Ev@Base 1.9.65
 _ZN4QApt16MarkingErrorInfoC2ENS_12BrokenReasonERKNS_14DependencyInfoE@Base 1.9.65
 _ZN4QApt16MarkingErrorInfoC2ERKS0_@Base 1.9.65
 _ZN4QApt16MarkingErrorInfoC2Ev@Base 1.9.65
 _ZN4QApt16MarkingErrorInfoD1Ev@Base 1.9.65
 _ZN4QApt16MarkingErrorInfoD2Ev@Base 1.9.65
 _ZN4QApt16MarkingErrorInfoaSERKS0_@Base 1.9.65
 _ZN4QApt6Config10writeEntryERK7QStringS3_@Base 1.0.60
 _ZN4QApt6Config10writeEntryERK7QStringb@Base 1.0.60
 _ZN4QApt6Config10writeEntryERK7QStringi@Base 1.0.60
 _ZN4QApt6Config11qt_metacallEN11QMetaObject4CallEiPPv@Base 1.0.60
 _ZN4QApt6Config11qt_metacastEPKc@Base 1.0.60
 _ZN4QApt6Config16staticMetaObjectE@Base 1.0.60
 _ZN4QApt6ConfigC1EP7QObject@Base 1.0.60
 _ZN4QApt6ConfigC2EP7QObject@Base 1.0.60
 _ZN4QApt6ConfigD0Ev@Base 1.0.60
 _ZN4QApt6ConfigD1Ev@Base 1.0.60
 _ZN4QApt6ConfigD2Ev@Base 1.0.60
 _ZN4QApt7Backend11installFileERKNS_7DebFileE@Base 1.9.60
 _ZN4QApt7Backend11qt_metacallEN11QMetaObject4CallEiPPv@Base 0.3.0
 _ZN4QApt7Backend11qt_metacastEPKc@Base 0.3.0
 _ZN4QApt7Backend11reloadCacheEv@Base 0.3.0
 _ZN4QApt7Backend11updateCacheEv@Base 0.3.0
 _ZN4QApt7Backend12markPackagesERK5QListIPNS_7PackageEENS2_5StateE@Base 1.3.0
 _ZN4QApt7Backend12setInitErrorEv@Base 1.9.60
 _ZN4QApt7Backend13commitChangesEv@Base 0.3.0
 _ZN4QApt7Backend13upgradeSystemENS_11UpgradeTypeE@Base 1.9.60
 _ZN4QApt7Backend14loadSelectionsERK7QString@Base 0.3.0
 _ZN4QApt7Backend14packageChangedEv@Base 0.3.0
 _ZN4QApt7Backend14removePackagesE5QListIPNS_7PackageEE@Base 1.9.60
 _ZN4QApt7Backend14saveCacheStateEv@Base 0.3.0
 _ZN4QApt7Backend15installPackagesE5QListIPNS_7PackageEE@Base 1.9.60
 _ZN4QApt7Backend15loadPackagePinsEv@Base 1.9.60
 _ZN4QApt7Backend15openXapianIndexEv@Base 0.3.0
 _ZN4QApt7Backend15setFrontendCapsENS_12FrontendCapsE@Base 2.0.65
 _ZN4QApt7Backend16downloadArchivesERK7QStringS3_@Base 1.1.65
 _ZN4QApt7Backend16setPackagePinnedEPNS_7PackageEb@Base 1.1.65
 _ZN4QApt7Backend16staticMetaObjectE@Base 0.3.0
 _ZN4QApt7Backend17addArchiveToCacheERKNS_7DebFileE@Base 1.1.65
 _ZN4QApt7Backend17restoreCacheStateERK5QListIiE@Base 0.3.0
 _ZN4QApt7Backend17setCompressEventsEb@Base 1.3.0
 _ZN4QApt7Backend17updateXapianIndexEv@Base 0.3.0
 _ZN4QApt7Backend18emitPackageChangedEv@Base 1.9.60
 _ZN4QApt7Backend19xapianUpdateStartedEv@Base 1.9.60
 _ZN4QApt7Backend20setUndoRedoCacheSizeEi@Base 1.0.60
 _ZN4QApt7Backend20xapianUpdateFinishedEv@Base 1.9.60
 _ZN4QApt7Backend20xapianUpdateProgressEi@Base 1.0.60
 _ZN4QApt7Backend21markPackageForInstallERK7QString@Base 0.3.0
 _ZN4QApt7Backend21markPackageForRemovalERK7QString@Base 0.3.0
 _ZN4QApt7Backend22markPackagesForUpgradeEv@Base 0.3.0
 _ZN4QApt7Backend23transactionQueueChangedE7QString11QStringList@Base 1.9.60
 _ZN4QApt7Backend24emitXapianUpdateFinishedEv@Base 1.9.60
 _ZN4QApt7Backend25markPackagesForAutoRemoveEv@Base 1.0.60
 _ZN4QApt7Backend26markPackagesForDistUpgradeEv@Base 0.3.0
 _ZN4QApt7Backend4initEv@Base 0.3.0
 _ZN4QApt7Backend4redoEv@Base 0.3.0
 _ZN4QApt7Backend4undoEv@Base 0.3.0
 _ZN4QApt7BackendC1EP7QObject@Base 1.9.60
 _ZN4QApt7BackendC2EP7QObject@Base 1.9.60
 _ZN4QApt7BackendD0Ev@Base 0.3.0
 _ZN4QApt7BackendD1Ev@Base 0.3.0
 _ZN4QApt7BackendD2Ev@Base 0.3.0
 _ZN4QApt7DebFileC1ERK7QString@Base 1.1.65
 _ZN4QApt7DebFileC2ERK7QString@Base 1.1.65
 _ZN4QApt7DebFileD1Ev@Base 1.1.65
 _ZN4QApt7DebFileD2Ev@Base 1.1.65
 _ZN4QApt7History11qt_metacallEN11QMetaObject4CallEiPPv@Base 1.0.80
 _ZN4QApt7History11qt_metacastEPKc@Base 1.0.80
 _ZN4QApt7History16staticMetaObjectE@Base 1.0.80
 _ZN4QApt7History6reloadEv@Base 1.0.80
 _ZN4QApt7HistoryC1EP7QObject@Base 1.0.80
 _ZN4QApt7HistoryC2EP7QObject@Base 1.0.80
 _ZN4QApt7HistoryD0Ev@Base 1.0.80
 _ZN4QApt7HistoryD1Ev@Base 1.0.80
 _ZN4QApt7HistoryD2Ev@Base 1.0.80
 _ZN4QApt7Package10setInstallEv@Base 0.3.0
 _ZN4QApt7Package10setVersionERK7QString@Base 0.3.0
 _ZN4QApt7Package12setReInstallEv@Base 0.3.0
 _ZN4QApt7Package14compareVersionERK7QStringS3_@Base 1.1.65
 _ZN4QApt7Package15upstreamVersionERK7QString@Base 1.1.65
 _ZN4QApt7Package7setAutoEb@Base 0.3.0
 _ZN4QApt7Package7setKeepEv@Base 0.3.0
 _ZN4QApt7Package8setPurgeEv@Base 0.3.0
 _ZN4QApt7Package9setPinnedEb@Base 1.1.65
 _ZN4QApt7Package9setRemoveEv@Base 0.3.0
 _ZN4QApt7PackageC1EPNS_7BackendERN8pkgCache11PkgIteratorE@Base 1.9.60
 _ZN4QApt7PackageC2EPNS_7BackendERN8pkgCache11PkgIteratorE@Base 1.9.60
 _ZN4QApt7PackageD1Ev@Base 0.3.0
 _ZN4QApt7PackageD2Ev@Base 1.0.60
 _ZN4QApt9ChangelogC1ERK7QStringS3_@Base 1.3.0
 _ZN4QApt9ChangelogC1ERKS0_@Base 1.3.0
 _ZN4QApt9ChangelogC2ERK7QStringS3_@Base 1.3.0
 _ZN4QApt9ChangelogC2ERKS0_@Base 1.3.0
 _ZN4QApt9ChangelogD1Ev@Base 1.3.0
 _ZN4QApt9ChangelogD2Ev@Base 1.3.0
 _ZN4QApt9ChangelogaSERKS0_@Base 1.3.0
 _ZN6Xapian5ErrorD1Ev@Base 1.3.65
 _ZN6Xapian5ErrorD2Ev@Base 1.3.65
 _ZNK4QApt11HistoryItem11errorStringEv@Base 1.0.80
 _ZNK4QApt11HistoryItem14purgedPackagesEv@Base 1.0.80
 _ZNK4QApt11HistoryItem15removedPackagesEv@Base 1.0.80
 _ZNK4QApt11HistoryItem16upgradedPackagesEv@Base 1.0.80
 _ZNK4QApt11HistoryItem17installedPackagesEv@Base 1.0.80
 _ZNK4QApt11HistoryItem18downgradedPackagesEv@Base 1.0.80
 _ZNK4QApt11HistoryItem7isValidEv@Base 1.0.80
 _ZNK4QApt11HistoryItem9startDateEv@Base 1.0.80
 _ZNK4QApt11SourceEntry10componentsEv@Base 2.0.65
 _ZNK4QApt11SourceEntry13architecturesEv@Base 2.0.65
 _ZNK4QApt11SourceEntry3uriEv@Base 2.0.65
 _ZNK4QApt11SourceEntry4distEv@Base 2.0.65
 _ZNK4QApt11SourceEntry4fileEv@Base 2.0.65
 _ZNK4QApt11SourceEntry4typeEv@Base 2.0.65
 _ZNK4QApt11SourceEntry7commentEv@Base 2.0.65
 _ZNK4QApt11SourceEntry7isValidEv@Base 2.0.65
 _ZNK4QApt11SourceEntry8toStringEv@Base 2.0.65
 _ZNK4QApt11SourceEntry9isEnabledEv@Base 2.0.65
 _ZNK4QApt11SourceEntryeqERKS0_@Base 2.0.65
 _ZNK4QApt11SourcesList10metaObjectEv@Base 2.0.65
 _ZNK4QApt11SourcesList7entriesERK7QString@Base 2.2.0
 _ZNK4QApt11SourcesList7entriesEv@Base 2.0.65
 _ZNK4QApt11SourcesList8toStringEv@Base 2.2.0
 _ZNK4QApt11Transaction10exitStatusEv@Base 1.9.60
 _ZNK4QApt11Transaction10metaObjectEv@Base 1.9.60
 _ZNK4QApt11Transaction11debconfPipeEv@Base 1.9.60
 _ZNK4QApt11Transaction11downloadETAEv@Base 1.9.60
 _ZNK4QApt11Transaction11errorStringEv@Base 2.2.0
 _ZNK4QApt11Transaction11isCancelledEv@Base 1.9.60
 _ZNK4QApt11Transaction12errorDetailsEv@Base 1.9.60
 _ZNK4QApt11Transaction12frontendCapsEv@Base 2.0.65
 _ZNK4QApt11Transaction13downloadSpeedEv@Base 1.9.60
 _ZNK4QApt11Transaction13isCancellableEv@Base 1.9.60
 _ZNK4QApt11Transaction13statusDetailsEv@Base 1.9.60
 _ZNK4QApt11Transaction13transactionIdEv@Base 1.9.60
 _ZNK4QApt11Transaction16downloadProgressEv@Base 1.9.60
 _ZNK4QApt11Transaction17untrustedPackagesEv@Base 1.9.60
 _ZNK4QApt11Transaction4roleEv@Base 1.9.60
 _ZNK4QApt11Transaction5errorEv@Base 1.9.60
 _ZNK4QApt11Transaction5proxyEv@Base 1.9.60
 _ZNK4QApt11Transaction6localeEv@Base 1.9.60
 _ZNK4QApt11Transaction6statusEv@Base 1.9.60
 _ZNK4QApt11Transaction6userIdEv@Base 1.9.60
 _ZNK4QApt11Transaction8filePathEv@Base 1.9.60
 _ZNK4QApt11Transaction8isPausedEv@Base 1.9.60
 _ZNK4QApt11Transaction8packagesEv@Base 1.9.60
 _ZNK4QApt11Transaction8progressEv@Base 1.9.60
 _ZNK4QApt11TransactioneqEPKS0_@Base 1.9.60
 _ZNK4QApt14ChangelogEntry11descriptionEv@Base 1.3.0
 _ZNK4QApt14ChangelogEntry13issueDateTimeEv@Base 1.3.0
 _ZNK4QApt14ChangelogEntry7CVEUrlsEv@Base 1.9.60
 _ZNK4QApt14ChangelogEntry7versionEv@Base 1.3.0
 _ZNK4QApt14ChangelogEntry9entryTextEv@Base 1.3.0
 _ZNK4QApt14DependencyInfo11packageNameEv@Base 1.1.65
 _ZNK4QApt14DependencyInfo12relationTypeEv@Base 1.1.65
 _ZNK4QApt14DependencyInfo14dependencyTypeEv@Base 1.1.65
 _ZNK4QApt14DependencyInfo14packageVersionEv@Base 1.1.65
 _ZNK4QApt16DownloadProgress11fetchedSizeEv@Base 1.9.60
 _ZNK4QApt16DownloadProgress13statusMessageEv@Base 1.9.60
 _ZNK4QApt16DownloadProgress16shortDescriptionEv@Base 1.9.60
 _ZNK4QApt16DownloadProgress3uriEv@Base 1.9.60
 _ZNK4QApt16DownloadProgress6statusEv@Base 1.9.60
 _ZNK4QApt16DownloadProgress8fileSizeEv@Base 1.9.60
 _ZNK4QApt16DownloadProgress8progressEv@Base 1.9.60
 _ZNK4QApt16MarkingErrorInfo9errorInfoEv@Base 1.9.65
 _ZNK4QApt16MarkingErrorInfo9errorTypeEv@Base 1.9.65
 _ZNK4QApt6Config10metaObjectEv@Base 1.0.60
 _ZNK4QApt6Config13architecturesEv@Base 1.3.65
 _ZNK4QApt6Config13findDirectoryERK7QStringS3_@Base 1.3.65
 _ZNK4QApt6Config8findFileERK7QStringS3_@Base 1.3.65
 _ZNK4QApt6Config9readEntryERK7QStringS3_@Base 1.0.60
 _ZNK4QApt6Config9readEntryERK7QStringb@Base 1.0.60
 _ZNK4QApt6Config9readEntryERK7QStringi@Base 1.0.60
 _ZNK4QApt7Backend10metaObjectEv@Base 0.3.0
 _ZNK4QApt7Backend11installSizeEv@Base 0.3.0
 _ZNK4QApt7Backend11originLabelERK7QString@Base 0.3.0
 _ZNK4QApt7Backend12downloadSizeEv@Base 0.3.0
 _ZNK4QApt7Backend12frontendCapsEv@Base 2.0.65
 _ZNK4QApt7Backend12originLabelsEv@Base 0.3.0
 _ZNK4QApt7Backend12packageCountERK6QFlagsINS_7Package5StateEE@Base 0.3.0
 _ZNK4QApt7Backend12packageCountEv@Base 0.3.0
 _ZNK4QApt7Backend12stateChangesERK5QListIiERKS1_IPNS_7PackageEE@Base 1.9.65
 _ZNK4QApt7Backend13architecturesEv@Base 1.2.2
 _ZNK4QApt7Backend13toRemoveCountEv@Base 1.0.60
 _ZNK4QApt7Backend14installedCountEv@Base 1.0.60
 _ZNK4QApt7Backend14markedPackagesEv@Base 0.3.0
 _ZNK4QApt7Backend14originsForHostERK7QString@Base 1.3.80
 _ZNK4QApt7Backend14packageForFileERK7QString@Base 0.4.0
 _ZNK4QApt7Backend14saveSelectionsERK7QString@Base 0.3.0
 _ZNK4QApt7Backend14toInstallCountEv@Base 1.0.60
 _ZNK4QApt7Backend15availableGroupsEv@Base 0.3.0
 _ZNK4QApt7Backend16areChangesMarkedEv@Base 1.0.90
 _ZNK4QApt7Backend16initErrorMessageEv@Base 1.9.60
 _ZNK4QApt7Backend16isRedoStackEmptyEv@Base 0.3.0
 _ZNK4QApt7Backend16isUndoStackEmptyEv@Base 0.3.0
 _ZNK4QApt7Backend16saveDownloadListERK7QString@Base 1.1.65
 _ZNK4QApt7Backend17availablePackagesEv@Base 0.3.0
 _ZNK4QApt7Backend17currentCacheStateEv@Base 0.3.0
 _ZNK4QApt7Backend17packageSourceListEv@Base 0.3.0
 _ZNK4QApt7Backend18isMultiArchEnabledEv@Base 1.2.2
 _ZNK4QApt7Backend18nativeArchitectureEv@Base 1.2.2
 _ZNK4QApt7Backend19areEventsCompressedEv@Base 1.3.0
 _ZNK4QApt7Backend19upgradeablePackagesEv@Base 0.3.0
 _ZNK4QApt7Backend20timeCacheLastUpdatedEv@Base 1.3.0
 _ZNK4QApt7Backend22xapianIndexNeedsUpdateEv@Base 0.3.0
 _ZNK4QApt7Backend25saveInstalledPackagesListERK7QString@Base 1.0.60
 _ZNK4QApt7Backend5cacheEv@Base 1.0.60
 _ZNK4QApt7Backend6configEv@Base 1.0.60
 _ZNK4QApt7Backend6originERK7QString@Base 1.9.60
 _ZNK4QApt7Backend6searchERK7QString@Base 0.3.0
 _ZNK4QApt7Backend7originsEv@Base 1.3.65
 _ZNK4QApt7Backend7packageE13QLatin1String@Base 1.9.60
 _ZNK4QApt7Backend7packageERK7QString@Base 0.3.0
 _ZNK4QApt7Backend7packageERN8pkgCache11PkgIteratorE@Base 0.3.0
 _ZNK4QApt7Backend7recordsEv@Base 1.3.65
 _ZNK4QApt7Backend8isBrokenEv@Base 0.3.0
 _ZNK4QApt7DebFile10maintainerEv@Base 1.1.65
 _ZNK4QApt7DebFile10preDependsEv@Base 1.1.65
 _ZNK4QApt7DebFile10recommendsEv@Base 1.1.65
 _ZNK4QApt7DebFile11packageNameEv@Base 1.1.65
 _ZNK4QApt7DebFile12architectureEv@Base 1.1.65
 _ZNK4QApt7DebFile12controlFieldERK13QLatin1String@Base 1.1.65
 _ZNK4QApt7DebFile12controlFieldERK7QString@Base 1.1.65
 _ZNK4QApt7DebFile13installedSizeEv@Base 1.1.65
 _ZNK4QApt7DebFile13sourcePackageEv@Base 1.1.65
 _ZNK4QApt7DebFile14extractArchiveERK7QString@Base 1.1.65
 _ZNK4QApt7DebFile15longDescriptionEv@Base 1.1.65
 _ZNK4QApt7DebFile16shortDescriptionEv@Base 1.1.65
 _ZNK4QApt7DebFile22extractFileFromArchiveERK7QStringS3_@Base 1.1.65
 _ZNK4QApt7DebFile6breaksEv@Base 1.1.65
 _ZNK4QApt7DebFile6md5SumEv@Base 1.1.65
 _ZNK4QApt7DebFile7dependsEv@Base 1.1.65
 _ZNK4QApt7DebFile7isValidEv@Base 1.1.65
 _ZNK4QApt7DebFile7sectionEv@Base 1.1.65
 _ZNK4QApt7DebFile7versionEv@Base 1.1.65
 _ZNK4QApt7DebFile8enhancesEv@Base 1.1.65
 _ZNK4QApt7DebFile8fileListEv@Base 1.1.65
 _ZNK4QApt7DebFile8filePathEv@Base 1.1.65
 _ZNK4QApt7DebFile8homepageEv@Base 1.1.65
 _ZNK4QApt7DebFile8iconListEv@Base 1.1.65
 _ZNK4QApt7DebFile8priorityEv@Base 1.1.65
 _ZNK4QApt7DebFile8replacesEv@Base 1.1.65
 _ZNK4QApt7DebFile8suggestsEv@Base 1.1.65
 _ZNK4QApt7DebFile9conflictsEv@Base 1.1.65
 _ZNK4QApt7DebFile9obsoletesEv@Base 1.1.65
 _ZNK4QApt7History10metaObjectEv@Base 1.0.80
 _ZNK4QApt7History12historyItemsEv@Base 1.0.80
 _ZNK4QApt7Package10maintainerEv@Base 0.3.0
 _ZNK4QApt7Package10preDependsEv@Base 1.1.65
 _ZNK4QApt7Package10recommendsEv@Base 1.1.65
 _ZNK4QApt7Package10wouldBreakEv@Base 0.3.0
 _ZNK4QApt7Package11isInstalledEv@Base 0.3.0
 _ZNK4QApt7Package11isSupportedEv@Base 0.3.0
 _ZNK4QApt7Package11staticStateEv@Base 1.9.65
 _ZNK4QApt7Package12architectureEv@Base 1.2.2
 _ZNK4QApt7Package12brokenReasonEv@Base 0.3.0
 _ZNK4QApt7Package12changelogUrlEv@Base 0.3.0
 _ZNK4QApt7Package12controlFieldE13QLatin1String@Base 1.9.60
 _ZNK4QApt7Package12controlFieldERK7QString@Base 1.1.0
 _ZNK4QApt7Package12downloadSizeEv@Base 0.3.0
 _ZNK4QApt7Package12enhancesListEv@Base 1.0.90
 _ZNK4QApt7Package12providesListEv@Base 0.3.0
 _ZNK4QApt7Package12suggestsListEv@Base 1.0.90
 _ZNK4QApt7Package13isForeignArchEv@Base 1.2.2
 _ZNK4QApt7Package13multiArchTypeEv@Base 1.3.65
 _ZNK4QApt7Package13screenshotUrlENS_14ScreenshotTypeE@Base 0.3.0
 _ZNK4QApt7Package13sourcePackageEv@Base 0.3.0
 _ZNK4QApt7Package14dependencyListEb@Base 0.3.0
 _ZNK4QApt7Package14enhancedByListEv@Base 1.0.90
 _ZNK4QApt7Package14recommendsListEv@Base 1.0.90
 _ZNK4QApt7Package14requiredByListEv@Base 0.3.0
 _ZNK4QApt7Package14supportedUntilEv@Base 0.3.0
 _ZNK4QApt7Package15longDescriptionEv@Base 0.3.0
 _ZNK4QApt7Package15packageIteratorEv@Base 0.3.0
 _ZNK4QApt7Package15upstreamVersionEv@Base 1.1.65
 _ZNK4QApt7Package16availableVersionEv@Base 0.3.0
 _ZNK4QApt7Package16installedVersionEv@Base 0.3.0
 _ZNK4QApt7Package16shortDescriptionEv@Base 0.3.0
 _ZNK4QApt7Package17availableVersionsEv@Base 0.3.0
 _ZNK4QApt7Package18installedFilesListEv@Base 0.3.0
 _ZNK4QApt7Package19multiArchTypeStringEv@Base 1.3.65
 _ZNK4QApt7Package20currentInstalledSizeEv@Base 0.3.0
 _ZNK4QApt7Package20isMultiArchDuplicateEv@Base 1.3.65
 _ZNK4QApt7Package22availableInstalledSizeEv@Base 0.3.0
 _ZNK4QApt7Package2idEv@Base 0.3.0
 _ZNK4QApt7Package4nameEv@Base 0.3.0
 _ZNK4QApt7Package5stateEv@Base 0.3.0
 _ZNK4QApt7Package6breaksEv@Base 1.1.65
 _ZNK4QApt7Package6md5SumEv@Base 1.1.65
 _ZNK4QApt7Package6originEv@Base 0.3.0
 _ZNK4QApt7Package7dependsEv@Base 1.1.65
 _ZNK4QApt7Package7sectionEv@Base 0.3.0
 _ZNK4QApt7Package7versionEv@Base 0.3.0
 _ZNK4QApt7Package8archivesEv@Base 1.3.0
 _ZNK4QApt7Package8enhancesEv@Base 1.1.65
 _ZNK4QApt7Package8homepageEv@Base 0.3.0
 _ZNK4QApt7Package8priorityEv@Base 0.3.0
 _ZNK4QApt7Package8replacesEv@Base 1.1.65
 _ZNK4QApt7Package8suggestsEv@Base 1.1.65
 _ZNK4QApt7Package9componentEv@Base 0.3.0
 _ZNK4QApt7Package9conflictsEv@Base 1.1.65
 _ZNK4QApt7Package9isTrustedEv@Base 0.3.0
 _ZNK4QApt7Package9obsoletesEv@Base 1.1.65
 _ZNK4QApt9Changelog15newEntriesSinceERK7QString@Base 1.3.0
 _ZNK4QApt9Changelog4textEv@Base 1.3.0
 _ZNK4QApt9Changelog7entriesEv@Base 1.3.0
 _ZTIN4QApt11SourcesListE@Base 2.0.65
 _ZTIN4QApt11TransactionE@Base 1.9.60
 _ZTIN4QApt6ConfigE@Base 1.0.60
 _ZTIN4QApt7BackendE@Base 0.3.0
 _ZTIN4QApt7HistoryE@Base 1.0.90
 _ZTIN6Xapian12RuntimeErrorE@Base 0.3.0
 _ZTIN6Xapian13DatabaseErrorE@Base 0.3.0
 _ZTIN6Xapian20DatabaseOpeningErrorE@Base 0.3.0
 _ZTIN6Xapian5ErrorE@Base 0.3.0
 _ZTSN4QApt11SourcesListE@Base 2.0.65
 _ZTSN4QApt11TransactionE@Base 1.9.60
 _ZTSN4QApt6ConfigE@Base 1.0.60
 _ZTSN4QApt7BackendE@Base 0.3.0
 _ZTSN4QApt7HistoryE@Base 1.0.80
 _ZTSN6Xapian12RuntimeErrorE@Base 0.3.0
 _ZTSN6Xapian13DatabaseErrorE@Base 0.3.0
 _ZTSN6Xapian20DatabaseOpeningErrorE@Base 0.3.0
 _ZTSN6Xapian5ErrorE@Base 0.3.0
 _ZTVN4QApt11SourcesListE@Base 2.0.65
 _ZTVN4QApt11TransactionE@Base 1.9.60
 _ZTVN4QApt6ConfigE@Base 1.0.60
 _ZTVN4QApt7BackendE@Base 0.3.0
 _ZTVN4QApt7HistoryE@Base 1.0.80